(dp1
I48
(dp2
S'becameSuitTime'
p3
F1590429446.03
sS'savedBy'
p4
NsS'track'
p5
S'c'
sS'numFloors'
p6
I4
sS'difficulty'
p7
I5
sS'state'
p8
S'suit'
p9
sS'block'
p10
I48
ssI41
(dp11
g3
F1590429467.6800001
sg4
Nsg5
S'c'
sg6
I2
sg7
I3
sg8
g9
sg10
I41
ssI36
(dp12
g3
F1590632926.8150001
sg4
Nsg5
S'c'
sg6
I3
sg7
I3
sg8
g9
sg10
I36
ssI53
(dp13
g3
F1590632966.2260001
sg4
Nsg5
S'l'
sg6
I2
sg7
I3
sg8
g9
sg10
I53
ssI52
(dp14
g3
F1590632937.8989999
sg4
Nsg5
S'l'
sg6
I2
sg7
I3
sg8
g9
sg10
I52
ss.