(dp1
I33
(dp2
S'becameSuitTime'
p3
F1590633180.6270001
sS'savedBy'
p4
NsS'track'
p5
S's'
sS'numFloors'
p6
I4
sS'difficulty'
p7
I5
sS'state'
p8
S'suit'
p9
sS'block'
p10
I33
ssI26
(dp11
g3
F1590632890.5280001
sg4
Nsg5
S's'
sg6
I3
sg7
I2
sg8
g9
sg10
I26
ssI37
(dp12
g3
F1590184926.941
sg4
Nsg5
S's'
sg6
I4
sg7
I4
sg8
g9
sg10
I37
ssI30
(dp13
g3
F1590429398.431
sg4
Nsg5
S's'
sg6
I3
sg7
I5
sg8
g9
sg10
I30
ssI17
(dp14
g3
F1590196419.9089999
sg4
Nsg5
S's'
sg6
I3
sg7
I4
sg8
g9
sg10
I17
ss.