(dp1
I24
(dp2
S'becameSuitTime'
p3
F1590429386.9030001
sS'savedBy'
p4
NsS'track'
p5
S's'
sS'numFloors'
p6
I3
sS'difficulty'
p7
I3
sS'state'
p8
S'suit'
p9
sS'block'
p10
I24
ssI10
(dp11
g3
F1590632891.848
sg4
Nsg5
S's'
sg6
I3
sg7
I2
sg8
g9
sg10
I10
ssI20
(dp12
g3
F1590113674.79
sg4
Nsg5
S's'
sg6
I1
sg7
I1
sg8
g9
sg10
I20
ssI13
(dp13
g3
F1590115968.756
sg4
Nsg5
S's'
sg6
I1
sg7
I1
sg8
g9
sg10
I13
ssI21
(dp14
g3
F1590113720.529
sg4
Nsg5
S'l'
sg6
I2
sg7
I3
sg8
g9
sg10
I21
ss.