(dp1
I24
(dp2
S'becameSuitTime'
p3
F1403461515.207
sS'savedBy'
p4
NsS'track'
p5
S'c'
sS'numFloors'
p6
I1
sS'difficulty'
p7
I1
sS'state'
p8
S'suit'
p9
sS'block'
p10
I24
ssI18
(dp11
g3
F1403463216.2030001
sg4
Nsg5
S's'
sg6
I2
sg7
I2
sg8
g9
sg10
I18
ssI37
(dp12
g3
F1403463159.4809999
sg4
Nsg5
S's'
sg6
I1
sg7
I1
sg8
g9
sg10
I37
ss.