(dp1
I24
(dp2
S'becameSuitTime'
p3
F1590429380.441
sS'savedBy'
p4
NsS'track'
p5
S'm'
sS'numFloors'
p6
I2
sS'difficulty'
p7
I4
sS'state'
p8
S'suit'
p9
sS'block'
p10
I24
ssI10
(dp11
g3
F1590632869.9560001
sg4
Nsg5
S'm'
sg6
I4
sg7
I5
sg8
g9
sg10
I10
ssI19
(dp12
g3
F1590429370.563
sg4
Nsg5
S'm'
sg6
I1
sg7
I2
sg8
g9
sg10
I19
ssI18
(dp13
g3
F1590632919.905
sg4
Nsg5
S'm'
sg6
I3
sg7
I5
sg8
g9
sg10
I18
ssI30
(dp14
g3
F1590632882.77
sg4
Nsg5
S'm'
sg6
I3
sg7
I4
sg8
g9
sg10
I30
ss.