(dp1
I25
(dp2
S'becameSuitTime'
p3
F1590633885.3069999
sS'savedBy'
p4
NsS'track'
p5
S'l'
sS'numFloors'
p6
I3
sS'difficulty'
p7
I5
sS'state'
p8
S'suit'
p9
sS'block'
p10
I25
ssI18
(dp11
g3
F1590429246.0250001
sg4
Nsg5
S's'
sg6
I4
sg7
I5
sg8
g9
sg10
I18
ssI19
(dp12
g3
F1590430406.214
sg4
Nsg5
S'l'
sg6
I4
sg7
I4
sg8
g9
sg10
I19
ssI12
(dp13
g3
F1590429315.96
sg4
Nsg5
S'l'
sg6
I3
sg7
I2
sg8
g9
sg10
I12
ssI21
(dp14
g3
F1590632734.1819999
sg4
Nsg5
S'l'
sg6
I4
sg7
I5
sg8
g9
sg10
I21
ss.